target datalayout = "e-m:e-p270:32:32-p271:32:32-p272:64:64-i64:64-i128:128-f80:128-n8:16:32:64-S128"
target triple = "x86_64-pc-linux-gnu"

%struct.gmx_conect_t = type { i32, ptr }
%struct.gmx_conection_t = type { i32, i32 }

; Function Attrs: mustprogress nounwind uwtable
define noundef zeroext i1 @_Z16gmx_conect_existP12gmx_conect_tii(ptr noundef %0, i32 noundef %1, i32 noundef %2) #1 {
  %4 = alloca i1, align 1
  %5 = alloca ptr, align 8
  %6 = alloca i32, align 4
  %7 = alloca i32, align 4
  %8 = alloca ptr, align 8
  %9 = alloca i32, align 4
  %10 = alloca i32, align 4
  store ptr %0, ptr %5, align 8, !tbaa !28
  store i32 %1, ptr %6, align 4, !tbaa !21
  store i32 %2, ptr %7, align 4, !tbaa !21
  call void @llvm.lifetime.start.p0(i64 8, ptr %8) #15
  %11 = load ptr, ptr %5, align 8, !tbaa !28
  store ptr %11, ptr %8, align 8, !tbaa !28
  call void @llvm.lifetime.start.p0(i64 4, ptr %9) #15
  store i32 0, ptr %9, align 4, !tbaa !21
  br label %12

12:                                               ; preds = %64, %3
  %13 = load i32, ptr %9, align 4, !tbaa !21
  %14 = load ptr, ptr %8, align 8, !tbaa !28
  %15 = getelementptr inbounds nuw %struct.gmx_conect_t, ptr %14, i32 0, i32 0
  %16 = load i32, ptr %15, align 8, !tbaa !67
  %17 = icmp slt i32 %13, %16
  br i1 %17, label %18, label %67

18:                                               ; preds = %12
  %19 = load ptr, ptr %8, align 8, !tbaa !28
  %20 = getelementptr inbounds nuw %struct.gmx_conect_t, ptr %19, i32 0, i32 1
  %21 = load ptr, ptr %20, align 8, !tbaa !69
  %22 = load i32, ptr %9, align 4, !tbaa !21
  %23 = sext i32 %22 to i64
  %24 = getelementptr inbounds %struct.gmx_conection_t, ptr %21, i64 %23
  %25 = getelementptr inbounds nuw %struct.gmx_conection_t, ptr %24, i32 0, i32 0
  %26 = load i32, ptr %25, align 4, !tbaa !70
  %27 = load i32, ptr %6, align 4, !tbaa !21
  %28 = icmp eq i32 %26, %27
  br i1 %28, label %29, label %40

29:                                               ; preds = %18
  %30 = load ptr, ptr %8, align 8, !tbaa !28
  %31 = getelementptr inbounds nuw %struct.gmx_conect_t, ptr %30, i32 0, i32 1
  %32 = load ptr, ptr %31, align 8, !tbaa !69
  %33 = load i32, ptr %9, align 4, !tbaa !21
  %34 = sext i32 %33 to i64
  %35 = getelementptr inbounds %struct.gmx_conection_t, ptr %32, i64 %34
  %36 = getelementptr inbounds nuw %struct.gmx_conection_t, ptr %35, i32 0, i32 1
  %37 = load i32, ptr %36, align 4, !tbaa !72
  %38 = load i32, ptr %7, align 4, !tbaa !21
  %39 = icmp eq i32 %37, %38
  br i1 %39, label %62, label %40

40:                                               ; preds = %29, %18
  %41 = load ptr, ptr %8, align 8, !tbaa !28
  %42 = getelementptr inbounds nuw %struct.gmx_conect_t, ptr %41, i32 0, i32 1
  %43 = load ptr, ptr %42, align 8, !tbaa !69
  %44 = load i32, ptr %9, align 4, !tbaa !21
  %45 = sext i32 %44 to i64
  %46 = getelementptr inbounds %struct.gmx_conection_t, ptr %43, i64 %45
  %47 = getelementptr inbounds nuw %struct.gmx_conection_t, ptr %46, i32 0, i32 1
  %48 = load i32, ptr %47, align 4, !tbaa !72
  %49 = load i32, ptr %6, align 4, !tbaa !21
  %50 = icmp eq i32 %48, %49
  br i1 %50, label %51, label %63

51:                                               ; preds = %40
  %52 = load ptr, ptr %8, align 8, !tbaa !28
  %53 = getelementptr inbounds nuw %struct.gmx_conect_t, ptr %52, i32 0, i32 1
  %54 = load ptr, ptr %53, align 8, !tbaa !69
  %55 = load i32, ptr %9, align 4, !tbaa !21
  %56 = sext i32 %55 to i64
  %57 = getelementptr inbounds %struct.gmx_conection_t, ptr %54, i64 %56
  %58 = getelementptr inbounds nuw %struct.gmx_conection_t, ptr %57, i32 0, i32 0
  %59 = load i32, ptr %58, align 4, !tbaa !70
  %60 = load i32, ptr %7, align 4, !tbaa !21
  %61 = icmp eq i32 %59, %60
  br i1 %61, label %62, label %63

62:                                               ; preds = %51, %29
  store i1 true, ptr %4, align 1
  store i32 1, ptr %10, align 4
  br label %68

63:                                               ; preds = %51, %40
  br label %64

64:                                               ; preds = %63
  %65 = load i32, ptr %9, align 4, !tbaa !21
  %66 = add nsw i32 %65, 1
  store i32 %66, ptr %9, align 4, !tbaa !21
  br label %12, !llvm.loop !138

67:                                               ; preds = %12
  store i1 false, ptr %4, align 1
  store i32 1, ptr %10, align 4
  br label %68

68:                                               ; preds = %67, %62
  call void @llvm.lifetime.end.p0(i64 4, ptr %9) #15
  call void @llvm.lifetime.end.p0(i64 8, ptr %8) #15
  %69 = load i1, ptr %4, align 1
  ret i1 %69
}