; Function Attrs: mustprogress nofree norecurse nosync nounwind willreturn memory(read, inaccessiblemem: none) uwtable
define noundef zeroext i1 @_Z16gmx_conect_existP12gmx_conect_tii(ptr noundef readonly captures(none) %0, i32 noundef %1, i32 noundef %2) local_unnamed_addr #18 {
  %4 = load i32, ptr %0, align 8, !tbaa !60
  %5 = icmp sgt i32 %4, 0
  br i1 %5, label %.lr.ph, label %._crit_edge

.lr.ph:                                           ; preds = %3
  %6 = getelementptr inbounds nuw i8, ptr %0, i64 8
  %7 = load ptr, ptr %6, align 8, !tbaa !62
  %wide.trip.count = zext nneg i32 %4 to i64
  br label %9

8:                                                ; preds = %._crit_edge23
  %indvars.iv.next = add nuw nsw i64 %indvars.iv, 1
  %exitcond.not = icmp eq i64 %indvars.iv.next, %wide.trip.count
  br i1 %exitcond.not, label %._crit_edge, label %9, !llvm.loop !77

9:                                                ; preds = %.lr.ph, %8
  %indvars.iv = phi i64 [ 0, %.lr.ph ], [ %indvars.iv.next, %8 ]
  %10 = getelementptr inbounds nuw %struct.gmx_conection_t, ptr %7, i64 %indvars.iv
  %11 = load i32, ptr %10, align 4, !tbaa !63
  %12 = icmp eq i32 %11, %1
  %13 = getelementptr inbounds nuw i8, ptr %10, i64 4
  %14 = load i32, ptr %13, align 4, !tbaa !65
  %15 = icmp eq i32 %14, %2
  %or.cond24 = select i1 %12, i1 %15, i1 false
  br i1 %or.cond24, label %._crit_edge, label %._crit_edge23

._crit_edge23:                                    ; preds = %9
  %16 = icmp eq i32 %14, %1
  %17 = icmp eq i32 %11, %2
  %or.cond = and i1 %17, %16
  br i1 %or.cond, label %._crit_edge, label %8

._crit_edge:                                      ; preds = %8, %._crit_edge23, %9, %3
  %.lcssa = phi i1 [ false, %3 ], [ true, %._crit_edge23 ], [ false, %8 ], [ true, %9 ]
  ret i1 %.lcssa
}